target datalayout = "e-m:e-p270:32:32-p271:32:32-p272:64:64-i64:64-i128:128-f80:128-n8:16:32:64-S128"
target triple = "x86_64-pc-linux-gnu"

%struct.Saig_SimObj_t_ = type { i32, i32, i32, [1 x i32] }

; Function Attrs: inlinehint nounwind uwtable
define internal i32 @Saig_SimObjFaninC1(ptr noundef %0) #3 {
  %2 = alloca ptr, align 8
  store ptr %0, ptr %2, align 8, !tbaa !8
  %3 = load ptr, ptr %2, align 8, !tbaa !8
  %4 = getelementptr inbounds nuw %struct.Saig_SimObj_t_, ptr %3, i32 0, i32 1
  %5 = load i32, ptr %4, align 4, !tbaa !29
  %6 = and i32 %5, 1
  ret i32 %6
}

; Function Attrs: inlinehint nounwind uwtable
define internal i32 @Saig_SimObjFaninC0(ptr noundef %0) #3 {
  %2 = alloca ptr, align 8
  store ptr %0, ptr %2, align 8, !tbaa !8
  %3 = load ptr, ptr %2, align 8, !tbaa !8
  %4 = getelementptr inbounds nuw %struct.Saig_SimObj_t_, ptr %3, i32 0, i32 0
  %5 = load i32, ptr %4, align 4, !tbaa !27
  %6 = and i32 %5, 1
  ret i32 %6
}

; Function Attrs: inlinehint nounwind uwtable
define internal i32 @Saig_SimObjFanin1(ptr noundef %0) #3 {
  %2 = alloca ptr, align 8
  store ptr %0, ptr %2, align 8, !tbaa !8
  %3 = load ptr, ptr %2, align 8, !tbaa !8
  %4 = getelementptr inbounds nuw %struct.Saig_SimObj_t_, ptr %3, i32 0, i32 1
  %5 = load i32, ptr %4, align 4, !tbaa !29
  %6 = ashr i32 %5, 1
  ret i32 %6
}

; Function Attrs: inlinehint nounwind uwtable
define internal i32 @Saig_SimObjFanin0(ptr noundef %0) #3 {
  %2 = alloca ptr, align 8
  store ptr %0, ptr %2, align 8, !tbaa !8
  %3 = load ptr, ptr %2, align 8, !tbaa !8
  %4 = getelementptr inbounds nuw %struct.Saig_SimObj_t_, ptr %3, i32 0, i32 0
  %5 = load i32, ptr %4, align 4, !tbaa !27
  %6 = ashr i32 %5, 1
  ret i32 %6
}

; Function Attrs: inlinehint nounwind uwtable
define internal i32 @Aig_WordCountOnes(i32 noundef %0) #3 {
  %2 = alloca i32, align 4
  store i32 %0, ptr %2, align 4, !tbaa !10
  %3 = load i32, ptr %2, align 4, !tbaa !10
  %4 = and i32 %3, 1431655765
  %5 = load i32, ptr %2, align 4, !tbaa !10
  %6 = lshr i32 %5, 1
  %7 = and i32 %6, 1431655765
  %8 = add i32 %4, %7
  store i32 %8, ptr %2, align 4, !tbaa !10
  %9 = load i32, ptr %2, align 4, !tbaa !10
  %10 = and i32 %9, 858993459
  %11 = load i32, ptr %2, align 4, !tbaa !10
  %12 = lshr i32 %11, 2
  %13 = and i32 %12, 858993459
  %14 = add i32 %10, %13
  store i32 %14, ptr %2, align 4, !tbaa !10
  %15 = load i32, ptr %2, align 4, !tbaa !10
  %16 = and i32 %15, 252645135
  %17 = load i32, ptr %2, align 4, !tbaa !10
  %18 = lshr i32 %17, 4
  %19 = and i32 %18, 252645135
  %20 = add i32 %16, %19
  store i32 %20, ptr %2, align 4, !tbaa !10
  %21 = load i32, ptr %2, align 4, !tbaa !10
  %22 = and i32 %21, 16711935
  %23 = load i32, ptr %2, align 4, !tbaa !10
  %24 = lshr i32 %23, 8
  %25 = and i32 %24, 16711935
  %26 = add i32 %22, %25
  store i32 %26, ptr %2, align 4, !tbaa !10
  %27 = load i32, ptr %2, align 4, !tbaa !10
  %28 = and i32 %27, 65535
  %29 = load i32, ptr %2, align 4, !tbaa !10
  %30 = lshr i32 %29, 16
  %31 = add i32 %28, %30
  ret i32 %31
}

; Function Attrs: inlinehint nounwind uwtable
define internal void @Saig_ManSimulateOneInput(ptr noundef %0, ptr noundef %1) #3 {
  %3 = alloca ptr, align 8
  %4 = alloca ptr, align 8
  %5 = alloca ptr, align 8
  store ptr %0, ptr %3, align 8, !tbaa !8
  store ptr %1, ptr %4, align 8, !tbaa !8
  call void @llvm.lifetime.start.p0(i64 8, ptr %5) #9
  %6 = load ptr, ptr %3, align 8, !tbaa !8
  %7 = load ptr, ptr %4, align 8, !tbaa !8
  %8 = call i32 @Saig_SimObjFanin0(ptr noundef %7)
  %9 = sext i32 %8 to i64
  %10 = getelementptr inbounds %struct.Saig_SimObj_t_, ptr %6, i64 %9
  store ptr %10, ptr %5, align 8, !tbaa !8
  %11 = load ptr, ptr %4, align 8, !tbaa !8
  %12 = call i32 @Saig_SimObjFaninC0(ptr noundef %11)
  %13 = icmp ne i32 %12, 0
  br i1 %13, label %14, label %23

14:                                               ; preds = %2
  %15 = load ptr, ptr %5, align 8, !tbaa !8
  %16 = getelementptr inbounds nuw %struct.Saig_SimObj_t_, ptr %15, i32 0, i32 3
  %17 = getelementptr inbounds [1 x i32], ptr %16, i64 0, i64 0
  %18 = load i32, ptr %17, align 4, !tbaa !10
  %19 = xor i32 %18, -1
  %20 = load ptr, ptr %4, align 8, !tbaa !8
  %21 = getelementptr inbounds nuw %struct.Saig_SimObj_t_, ptr %20, i32 0, i32 3
  %22 = getelementptr inbounds [1 x i32], ptr %21, i64 0, i64 0
  store i32 %19, ptr %22, align 4, !tbaa !10
  br label %31

23:                                               ; preds = %2
  %24 = load ptr, ptr %5, align 8, !tbaa !8
  %25 = getelementptr inbounds nuw %struct.Saig_SimObj_t_, ptr %24, i32 0, i32 3
  %26 = getelementptr inbounds [1 x i32], ptr %25, i64 0, i64 0
  %27 = load i32, ptr %26, align 4, !tbaa !10
  %28 = load ptr, ptr %4, align 8, !tbaa !8
  %29 = getelementptr inbounds nuw %struct.Saig_SimObj_t_, ptr %28, i32 0, i32 3
  %30 = getelementptr inbounds [1 x i32], ptr %29, i64 0, i64 0
  store i32 %27, ptr %30, align 4, !tbaa !10
  br label %31

31:                                               ; preds = %23, %14
  call void @llvm.lifetime.end.p0(i64 8, ptr %5) #9
  ret void
}

; Function Attrs: inlinehint nounwind uwtable
define internal void @Saig_ManSimulateNode(ptr noundef %0, ptr noundef %1) #3 {
  %3 = alloca ptr, align 8
  %4 = alloca ptr, align 8
  %5 = alloca ptr, align 8
  %6 = alloca ptr, align 8
  store ptr %0, ptr %3, align 8, !tbaa !8
  store ptr %1, ptr %4, align 8, !tbaa !8
  call void @llvm.lifetime.start.p0(i64 8, ptr %5) #9
  %7 = load ptr, ptr %3, align 8, !tbaa !8
  %8 = load ptr, ptr %4, align 8, !tbaa !8
  %9 = call i32 @Saig_SimObjFanin0(ptr noundef %8)
  %10 = sext i32 %9 to i64
  %11 = getelementptr inbounds %struct.Saig_SimObj_t_, ptr %7, i64 %10
  store ptr %11, ptr %5, align 8, !tbaa !8
  call void @llvm.lifetime.start.p0(i64 8, ptr %6) #9
  %12 = load ptr, ptr %3, align 8, !tbaa !8
  %13 = load ptr, ptr %4, align 8, !tbaa !8
  %14 = call i32 @Saig_SimObjFanin1(ptr noundef %13)
  %15 = sext i32 %14 to i64
  %16 = getelementptr inbounds %struct.Saig_SimObj_t_, ptr %12, i64 %15
  store ptr %16, ptr %6, align 8, !tbaa !8
  %17 = load ptr, ptr %4, align 8, !tbaa !8
  %18 = call i32 @Saig_SimObjFaninC0(ptr noundef %17)
  %19 = icmp ne i32 %18, 0
  br i1 %19, label %20, label %26

20:                                               ; preds = %2
  %21 = load ptr, ptr %5, align 8, !tbaa !8
  %22 = getelementptr inbounds nuw %struct.Saig_SimObj_t_, ptr %21, i32 0, i32 3
  %23 = getelementptr inbounds [1 x i32], ptr %22, i64 0, i64 0
  %24 = load i32, ptr %23, align 4, !tbaa !10
  %25 = xor i32 %24, -1
  br label %31

26:                                               ; preds = %2
  %27 = load ptr, ptr %5, align 8, !tbaa !8
  %28 = getelementptr inbounds nuw %struct.Saig_SimObj_t_, ptr %27, i32 0, i32 3
  %29 = getelementptr inbounds [1 x i32], ptr %28, i64 0, i64 0
  %30 = load i32, ptr %29, align 4, !tbaa !10
  br label %31

31:                                               ; preds = %26, %20
  %32 = phi i32 [ %25, %20 ], [ %30, %26 ]
  %33 = load ptr, ptr %4, align 8, !tbaa !8
  %34 = call i32 @Saig_SimObjFaninC1(ptr noundef %33)
  %35 = icmp ne i32 %34, 0
  br i1 %35, label %36, label %42

36:                                               ; preds = %31
  %37 = load ptr, ptr %6, align 8, !tbaa !8
  %38 = getelementptr inbounds nuw %struct.Saig_SimObj_t_, ptr %37, i32 0, i32 3
  %39 = getelementptr inbounds [1 x i32], ptr %38, i64 0, i64 0
  %40 = load i32, ptr %39, align 4, !tbaa !10
  %41 = xor i32 %40, -1
  br label %47

42:                                               ; preds = %31
  %43 = load ptr, ptr %6, align 8, !tbaa !8
  %44 = getelementptr inbounds nuw %struct.Saig_SimObj_t_, ptr %43, i32 0, i32 3
  %45 = getelementptr inbounds [1 x i32], ptr %44, i64 0, i64 0
  %46 = load i32, ptr %45, align 4, !tbaa !10
  br label %47

47:                                               ; preds = %42, %36
  %48 = phi i32 [ %41, %36 ], [ %46, %42 ]
  %49 = and i32 %32, %48
  %50 = load ptr, ptr %4, align 8, !tbaa !8
  %51 = getelementptr inbounds nuw %struct.Saig_SimObj_t_, ptr %50, i32 0, i32 3
  %52 = getelementptr inbounds [1 x i32], ptr %51, i64 0, i64 0
  store i32 %49, ptr %52, align 4, !tbaa !10
  call void @llvm.lifetime.end.p0(i64 8, ptr %6) #9
  call void @llvm.lifetime.end.p0(i64 8, ptr %5) #9
  ret void
}

; Function Attrs: nounwind uwtable
define void @Saig_ManSimulateFrames(ptr noundef %0, i32 noundef %1, i32 noundef %2) #0 {
  %4 = alloca ptr, align 8
  %5 = alloca i32, align 4
  %6 = alloca i32, align 4
  %7 = alloca ptr, align 8
  %8 = alloca i32, align 4
  store ptr %0, ptr %4, align 8, !tbaa !8
  store i32 %1, ptr %5, align 4, !tbaa !10
  store i32 %2, ptr %6, align 4, !tbaa !10
  call void @llvm.lifetime.start.p0(i64 8, ptr %7) #9
  call void @llvm.lifetime.start.p0(i64 4, ptr %8) #9
  store i32 0, ptr %8, align 4, !tbaa !10
  br label %9

9:                                                ; preds = %109, %3
  %10 = load i32, ptr %8, align 4, !tbaa !10
  %11 = load i32, ptr %5, align 4, !tbaa !10
  %12 = icmp slt i32 %10, %11
  br i1 %12, label %13, label %112

13:                                               ; preds = %9
  %14 = load ptr, ptr %4, align 8, !tbaa !8
  store ptr %14, ptr %7, align 8, !tbaa !8
  br label %15

15:                                               ; preds = %105, %13
  %16 = load ptr, ptr %7, align 8, !tbaa !8
  %17 = getelementptr inbounds nuw %struct.Saig_SimObj_t_, ptr %16, i32 0, i32 2
  %18 = load i32, ptr %17, align 4
  %19 = and i32 %18, 255
  %20 = icmp ne i32 %19, 7
  br i1 %20, label %21, label %108

21:                                               ; preds = %15
  %22 = load ptr, ptr %7, align 8, !tbaa !8
  %23 = getelementptr inbounds nuw %struct.Saig_SimObj_t_, ptr %22, i32 0, i32 2
  %24 = load i32, ptr %23, align 4
  %25 = and i32 %24, 255
  %26 = icmp eq i32 %25, 5
  br i1 %26, label %27, label %30

27:                                               ; preds = %21
  %28 = load ptr, ptr %4, align 8, !tbaa !8
  %29 = load ptr, ptr %7, align 8, !tbaa !8
  call void @Saig_ManSimulateNode(ptr noundef %28, ptr noundef %29)
  br label %84

30:                                               ; preds = %21
  %31 = load ptr, ptr %7, align 8, !tbaa !8
  %32 = getelementptr inbounds nuw %struct.Saig_SimObj_t_, ptr %31, i32 0, i32 2
  %33 = load i32, ptr %32, align 4
  %34 = and i32 %33, 255
  %35 = icmp eq i32 %34, 3
  br i1 %35, label %36, label %39

36:                                               ; preds = %30
  %37 = load ptr, ptr %4, align 8, !tbaa !8
  %38 = load ptr, ptr %7, align 8, !tbaa !8
  call void @Saig_ManSimulateOneInput(ptr noundef %37, ptr noundef %38)
  br label %83

39:                                               ; preds = %30
  %40 = load ptr, ptr %7, align 8, !tbaa !8
  %41 = getelementptr inbounds nuw %struct.Saig_SimObj_t_, ptr %40, i32 0, i32 2
  %42 = load i32, ptr %41, align 4
  %43 = and i32 %42, 255
  %44 = icmp eq i32 %43, 2
  br i1 %44, label %45, label %63

45:                                               ; preds = %39
  %46 = load ptr, ptr %7, align 8, !tbaa !8
  %47 = getelementptr inbounds nuw %struct.Saig_SimObj_t_, ptr %46, i32 0, i32 0
  %48 = load i32, ptr %47, align 4, !tbaa !27
  %49 = icmp eq i32 %48, 0
  br i1 %49, label %50, label %55

50:                                               ; preds = %45
  %51 = call i32 @Aig_ManRandom(i32 noundef 0)
  %52 = load ptr, ptr %7, align 8, !tbaa !8
  %53 = getelementptr inbounds nuw %struct.Saig_SimObj_t_, ptr %52, i32 0, i32 3
  %54 = getelementptr inbounds [1 x i32], ptr %53, i64 0, i64 0
  store i32 %51, ptr %54, align 4, !tbaa !10
  br label %62

55:                                               ; preds = %45
  %56 = load i32, ptr %8, align 4, !tbaa !10
  %57 = icmp sgt i32 %56, 0
  br i1 %57, label %58, label %61

58:                                               ; preds = %55
  %59 = load ptr, ptr %4, align 8, !tbaa !8
  %60 = load ptr, ptr %7, align 8, !tbaa !8
  call void @Saig_ManSimulateOneInput(ptr noundef %59, ptr noundef %60)
  br label %61

61:                                               ; preds = %58, %55
  br label %62

62:                                               ; preds = %61, %50
  br label %82

63:                                               ; preds = %39
  %64 = load ptr, ptr %7, align 8, !tbaa !8
  %65 = getelementptr inbounds nuw %struct.Saig_SimObj_t_, ptr %64, i32 0, i32 2
  %66 = load i32, ptr %65, align 4
  %67 = and i32 %66, 255
  %68 = icmp eq i32 %67, 1
  br i1 %68, label %69, label %73

69:                                               ; preds = %63
  %70 = load ptr, ptr %7, align 8, !tbaa !8
  %71 = getelementptr inbounds nuw %struct.Saig_SimObj_t_, ptr %70, i32 0, i32 3
  %72 = getelementptr inbounds [1 x i32], ptr %71, i64 0, i64 0
  store i32 -1, ptr %72, align 4, !tbaa !10
  br label %81

73:                                               ; preds = %63
  %74 = load ptr, ptr %7, align 8, !tbaa !8
  %75 = getelementptr inbounds nuw %struct.Saig_SimObj_t_, ptr %74, i32 0, i32 2
  %76 = load i32, ptr %75, align 4
  %77 = and i32 %76, 255
  %78 = icmp ne i32 %77, 0
  br i1 %78, label %79, label %80

79:                                               ; preds = %73
  br label %80

80:                                               ; preds = %79, %73
  br label %81

81:                                               ; preds = %80, %69
  br label %82

82:                                               ; preds = %81, %62
  br label %83

83:                                               ; preds = %82, %36
  br label %84

84:                                               ; preds = %83, %27
  %85 = load i32, ptr %8, align 4, !tbaa !10
  %86 = load i32, ptr %6, align 4, !tbaa !10
  %87 = icmp sge i32 %85, %86
  br i1 %87, label %88, label %104

88:                                               ; preds = %84
  %89 = load ptr, ptr %7, align 8, !tbaa !8
  %90 = getelementptr inbounds nuw %struct.Saig_SimObj_t_, ptr %89, i32 0, i32 3
  %91 = getelementptr inbounds [1 x i32], ptr %90, i64 0, i64 0
  %92 = load i32, ptr %91, align 4, !tbaa !10
  %93 = call i32 @Aig_WordCountOnes(i32 noundef %92)
  %94 = load ptr, ptr %7, align 8, !tbaa !8
  %95 = getelementptr inbounds nuw %struct.Saig_SimObj_t_, ptr %94, i32 0, i32 2
  %96 = load i32, ptr %95, align 4
  %97 = lshr i32 %96, 8
  %98 = add nsw i32 %97, %93
  %99 = load i32, ptr %95, align 4
  %100 = and i32 %98, 16777215
  %101 = shl i32 %100, 8
  %102 = and i32 %99, 255
  %103 = or i32 %102, %101
  store i32 %103, ptr %95, align 4
  br label %104

104:                                              ; preds = %88, %84
  br label %105

105:                                              ; preds = %104
  %106 = load ptr, ptr %7, align 8, !tbaa !8
  %107 = getelementptr inbounds nuw %struct.Saig_SimObj_t_, ptr %106, i32 1
  store ptr %107, ptr %7, align 8, !tbaa !8
  br label %15, !llvm.loop !40

108:                                              ; preds = %15
  br label %109

109:                                              ; preds = %108
  %110 = load i32, ptr %8, align 4, !tbaa !10
  %111 = add nsw i32 %110, 1
  store i32 %111, ptr %8, align 4, !tbaa !10
  br label %9, !llvm.loop !41

112:                                              ; preds = %9
  call void @llvm.lifetime.end.p0(i64 4, ptr %8) #9
  call void @llvm.lifetime.end.p0(i64 8, ptr %7) #9
  ret void
}